; ModuleID = '44/816.c'
source_filename = "44/816.c"
target datalayout = "e-m:e-p270:32:32-p271:32:32-p272:64:64-i64:64-f80:128-n8:16:32:64-S128"
target triple = "x86_64-pc-linux-gnu"

@.str = private unnamed_addr constant [3 x i8] c"%d\00", align 1
@.str.1 = private unnamed_addr constant [2 x i8] c"-\00", align 1
@.str.2 = private unnamed_addr constant [4 x i8] c"%d\0A\00", align 1

; Function Attrs: noinline nounwind uwtable
define dso_local i32 @reverse(i32 %0) #0 {
  %2 = alloca i32, align 4
  %3 = alloca [10 x i32], align 16
  %4 = alloca i32, align 4
  %5 = alloca i32, align 4
  %6 = alloca i32, align 4
  store i32 %0, i32* %2, align 4
  %7 = bitcast [10 x i32]* %3 to i8*
  call void @llvm.memset.p0i8.i64(i8* align 16 %7, i8 0, i64 40, i1 false)
  store i32 0, i32* %5, align 4
  store i32 0, i32* %4, align 4
  br label %8

8:                                                ; preds = %11, %1
  %9 = load i32, i32* %2, align 4
  %10 = icmp sgt i32 %9, 0
  br i1 %10, label %11, label %21

11:                                               ; preds = %8
  %12 = load i32, i32* %2, align 4
  %13 = srem i32 %12, 10
  %14 = load i32, i32* %5, align 4
  %15 = sext i32 %14 to i64
  %16 = getelementptr inbounds [10 x i32], [10 x i32]* %3, i64 0, i64 %15
  store i32 %13, i32* %16, align 4
  %17 = load i32, i32* %2, align 4
  %18 = sdiv i32 %17, 10
  store i32 %18, i32* %2, align 4
  %19 = load i32, i32* %5, align 4
  %20 = add nsw i32 %19, 1
  store i32 %20, i32* %5, align 4
  br label %8

21:                                               ; preds = %8
  store i32 0, i32* %6, align 4
  br label %22

22:                                               ; preds = %44, %21
  %23 = load i32, i32* %6, align 4
  %24 = load i32, i32* %5, align 4
  %25 = sub nsw i32 %24, 1
  %26 = icmp sle i32 %23, %25
  br i1 %26, label %27, label %47

27:                                               ; preds = %22
  %28 = load i32, i32* %4, align 4
  %29 = sitofp i32 %28 to double
  %30 = load i32, i32* %6, align 4
  %31 = sext i32 %30 to i64
  %32 = getelementptr inbounds [10 x i32], [10 x i32]* %3, i64 0, i64 %31
  %33 = load i32, i32* %32, align 4
  %34 = sitofp i32 %33 to double
  %35 = load i32, i32* %5, align 4
  %36 = sub nsw i32 %35, 1
  %37 = load i32, i32* %6, align 4
  %38 = sub nsw i32 %36, %37
  %39 = sitofp i32 %38 to double
  %40 = call double @pow(double 1.000000e+01, double %39) #5
  %41 = fmul double %34, %40
  %42 = fadd double %29, %41
  %43 = fptosi double %42 to i32
  store i32 %43, i32* %4, align 4
  br label %44

44:                                               ; preds = %27
  %45 = load i32, i32* %6, align 4
  %46 = add nsw i32 %45, 1
  store i32 %46, i32* %6, align 4
  br label %22

47:                                               ; preds = %22
  %48 = load i32, i32* %4, align 4
  ret i32 %48
}

; Function Attrs: argmemonly nounwind willreturn
declare void @llvm.memset.p0i8.i64(i8* nocapture writeonly, i8, i64, i1 immarg) #1

; Function Attrs: nounwind
declare dso_local double @pow(double, double) #2

; Function Attrs: noinline nounwind uwtable
define dso_local i32 @main() #0 {
  %1 = alloca i32, align 4
  %2 = alloca i32, align 4
  %3 = alloca i32, align 4
  store i32 0, i32* %1, align 4
  store i32 1, i32* %2, align 4
  br label %4

4:                                                ; preds = %25, %0
  %5 = load i32, i32* %2, align 4
  %6 = icmp sle i32 %5, 6
  br i1 %6, label %7, label %28

7:                                                ; preds = %4
  %8 = call i32 (i8*, ...) @__isoc99_scanf(i8* getelementptr inbounds ([3 x i8], [3 x i8]* @.str, i64 0, i64 0), i32* %3)
  %9 = load i32, i32* %3, align 4
  %10 = icmp slt i32 %9, 0
  br i1 %10, label %11, label %20

11:                                               ; preds = %7
  %12 = call i32 (i8*, ...) @printf(i8* getelementptr inbounds ([2 x i8], [2 x i8]* @.str.1, i64 0, i64 0))
  %13 = load i32, i32* %3, align 4
  %14 = sitofp i32 %13 to double
  %15 = call double @llvm.fabs.f64(double %14)
  %16 = fptosi double %15 to i32
  store i32 %16, i32* %3, align 4
  %17 = load i32, i32* %3, align 4
  %18 = call i32 @reverse(i32 %17)
  %19 = call i32 (i8*, ...) @printf(i8* getelementptr inbounds ([4 x i8], [4 x i8]* @.str.2, i64 0, i64 0), i32 %18)
  br label %24

20:                                               ; preds = %7
  %21 = load i32, i32* %3, align 4
  %22 = call i32 @reverse(i32 %21)
  %23 = call i32 (i8*, ...) @printf(i8* getelementptr inbounds ([4 x i8], [4 x i8]* @.str.2, i64 0, i64 0), i32 %22)
  br label %24

24:                                               ; preds = %20, %11
  br label %25

25:                                               ; preds = %24
  %26 = load i32, i32* %2, align 4
  %27 = add nsw i32 %26, 1
  store i32 %27, i32* %2, align 4
  br label %4

28:                                               ; preds = %4
  ret i32 0
}

declare dso_local i32 @__isoc99_scanf(i8*, ...) #3

declare dso_local i32 @printf(i8*, ...) #3

; Function Attrs: nounwind readnone speculatable willreturn
declare double @llvm.fabs.f64(double) #4


!llvm.module.flags = !{!0}
!llvm.ident = !{!1}

!0 = !{i32 1, !"wchar_size", i32 4}
!1 = !{!"clang version 10.0.0-4ubuntu1 "}
